
uart.elf:     file format elf32-littlearm


Disassembly of section .text:

87800000 <_start>:
87800000:	e59ff100 	ldr	pc, [pc, #256]	; 87800108 <FIQ_Handler+0x8>
87800004:	e59ff100 	ldr	pc, [pc, #256]	; 8780010c <FIQ_Handler+0xc>
87800008:	e59ff100 	ldr	pc, [pc, #256]	; 87800110 <FIQ_Handler+0x10>
8780000c:	e59ff100 	ldr	pc, [pc, #256]	; 87800114 <FIQ_Handler+0x14>
87800010:	e59ff100 	ldr	pc, [pc, #256]	; 87800118 <FIQ_Handler+0x18>
87800014:	e59ff100 	ldr	pc, [pc, #256]	; 8780011c <FIQ_Handler+0x1c>
87800018:	e59ff100 	ldr	pc, [pc, #256]	; 87800120 <FIQ_Handler+0x20>
8780001c:	e59ff100 	ldr	pc, [pc, #256]	; 87800124 <FIQ_Handler+0x24>

87800020 <Reset_Handler>:
87800020:	f10c0080 	cpsid	i
87800024:	ee110f10 	mrc	15, 0, r0, cr1, cr0, {0}
87800028:	e3c00a01 	bic	r0, r0, #4096	; 0x1000
8780002c:	e3c00004 	bic	r0, r0, #4
87800030:	e3c00002 	bic	r0, r0, #2
87800034:	e3c00b02 	bic	r0, r0, #2048	; 0x800
87800038:	e3c00a01 	bic	r0, r0, #4096	; 0x1000
8780003c:	ee010f10 	mcr	15, 0, r0, cr1, cr0, {0}
87800040:	e10f0000 	mrs	r0, CPSR
87800044:	e3c0001f 	bic	r0, r0, #31
87800048:	e3800012 	orr	r0, r0, #18
8780004c:	e129f000 	msr	CPSR_fc, r0
87800050:	e59fd0d0 	ldr	sp, [pc, #208]	; 87800128 <FIQ_Handler+0x28>
87800054:	e10f0000 	mrs	r0, CPSR
87800058:	e3c0001f 	bic	r0, r0, #31
8780005c:	e380001f 	orr	r0, r0, #31
87800060:	e129f000 	msr	CPSR_fc, r0
87800064:	e59fd0c0 	ldr	sp, [pc, #192]	; 8780012c <FIQ_Handler+0x2c>
87800068:	e10f0000 	mrs	r0, CPSR
8780006c:	e3c0001f 	bic	r0, r0, #31
87800070:	e3800013 	orr	r0, r0, #19
87800074:	e129f000 	msr	CPSR_fc, r0
87800078:	e59fd0b0 	ldr	sp, [pc, #176]	; 87800130 <FIQ_Handler+0x30>
8780007c:	f1080080 	cpsie	i
87800080:	ea000212 	b	878008d0 <__main_from_arm>

87800084 <Undefined_Handler>:
87800084:	e59f0080 	ldr	r0, [pc, #128]	; 8780010c <FIQ_Handler+0xc>
87800088:	e12fff10 	bx	r0

8780008c <SVC_Handler>:
8780008c:	e59f007c 	ldr	r0, [pc, #124]	; 87800110 <FIQ_Handler+0x10>
87800090:	e12fff10 	bx	r0

87800094 <PrefAbort_Handler>:
87800094:	e59f0078 	ldr	r0, [pc, #120]	; 87800114 <FIQ_Handler+0x14>
87800098:	e12fff10 	bx	r0

8780009c <DataAbort_Handler>:
8780009c:	e59f0074 	ldr	r0, [pc, #116]	; 87800118 <FIQ_Handler+0x18>
878000a0:	e12fff10 	bx	r0

878000a4 <NotUsed_Handler>:
878000a4:	e59f0070 	ldr	r0, [pc, #112]	; 8780011c <FIQ_Handler+0x1c>
878000a8:	e12fff10 	bx	r0

878000ac <IRQ_Handler>:
878000ac:	e52de004 	push	{lr}		; (str lr, [sp, #-4]!)
878000b0:	e92d100f 	push	{r0, r1, r2, r3, ip}
878000b4:	e14f0000 	mrs	r0, SPSR
878000b8:	e52d0004 	push	{r0}		; (str r0, [sp, #-4]!)
878000bc:	ee9f1f10 	mrc	15, 4, r1, cr15, cr0, {0}
878000c0:	e2811a02 	add	r1, r1, #8192	; 0x2000
878000c4:	e591000c 	ldr	r0, [r1, #12]
878000c8:	e92d0003 	push	{r0, r1}
878000cc:	f1020013 	cps	#19
878000d0:	e52de004 	push	{lr}		; (str lr, [sp, #-4]!)
878000d4:	e59f2058 	ldr	r2, [pc, #88]	; 87800134 <FIQ_Handler+0x34>
878000d8:	e12fff32 	blx	r2
878000dc:	e49de004 	pop	{lr}		; (ldr lr, [sp], #4)
878000e0:	f1020012 	cps	#18
878000e4:	e8bd0003 	pop	{r0, r1}
878000e8:	e5810010 	str	r0, [r1, #16]
878000ec:	e49d0004 	pop	{r0}		; (ldr r0, [sp], #4)
878000f0:	e16ff000 	msr	SPSR_fsxc, r0
878000f4:	e8bd100f 	pop	{r0, r1, r2, r3, ip}
878000f8:	e49de004 	pop	{lr}		; (ldr lr, [sp], #4)
878000fc:	e25ef004 	subs	pc, lr, #4

87800100 <FIQ_Handler>:
87800100:	e59f001c 	ldr	r0, [pc, #28]	; 87800124 <FIQ_Handler+0x24>
87800104:	e12fff10 	bx	r0
87800108:	87800020 	strhi	r0, [r0, r0, lsr #32]
8780010c:	87800084 	strhi	r0, [r0, r4, lsl #1]
87800110:	8780008c 	strhi	r0, [r0, ip, lsl #1]
87800114:	87800094 			; <UNDEFINED> instruction: 0x87800094
87800118:	8780009c 			; <UNDEFINED> instruction: 0x8780009c
8780011c:	878000a4 	strhi	r0, [r0, r4, lsr #1]
87800120:	878000ac 	strhi	r0, [r0, ip, lsr #1]
87800124:	87800100 	strhi	r0, [r0, r0, lsl #2]
87800128:	80600000 	rsbhi	r0, r0, r0
8780012c:	80400000 	subhi	r0, r0, r0
87800130:	80200000 	eorhi	r0, r0, r0
87800134:	87800561 	strhi	r0, [r0, r1, ror #10]
87800138:	00001e41 	andeq	r1, r0, r1, asr #28
8780013c:	61656100 	cmnvs	r5, r0, lsl #2
87800140:	01006962 	tsteq	r0, r2, ror #18
87800144:	00000014 	andeq	r0, r0, r4, lsl r0
87800148:	412d3705 	teqmi	sp, r5, lsl #14
8780014c:	070a0600 	streq	r0, [sl, -r0, lsl #12]
87800150:	09010841 	stmdbeq	r1, {r0, r6, fp}
87800154:	00040a02 	andeq	r0, r4, r2, lsl #20

87800158 <bsp_clk_enable>:
87800158:	f44f 4380 	mov.w	r3, #16384	; 0x4000
8780015c:	f04f 32ff 	mov.w	r2, #4294967295	; 0xffffffff
87800160:	f2c0 230c 	movt	r3, #524	; 0x20c
87800164:	669a      	str	r2, [r3, #104]	; 0x68
87800166:	66da      	str	r2, [r3, #108]	; 0x6c
87800168:	671a      	str	r2, [r3, #112]	; 0x70
8780016a:	675a      	str	r2, [r3, #116]	; 0x74
8780016c:	679a      	str	r2, [r3, #120]	; 0x78
8780016e:	67da      	str	r2, [r3, #124]	; 0x7c
87800170:	f8c3 2080 	str.w	r2, [r3, #128]	; 0x80
87800174:	4770      	bx	lr
87800176:	bf00      	nop

87800178 <bsp_imx6u_clk_init>:
87800178:	f44f 4380 	mov.w	r3, #16384	; 0x4000
8780017c:	b430      	push	{r4, r5}
8780017e:	f2c0 230c 	movt	r3, #524	; 0x20c
87800182:	68da      	ldr	r2, [r3, #12]
87800184:	0751      	lsls	r1, r2, #29
87800186:	d407      	bmi.n	87800198 <bsp_imx6u_clk_init+0x20>
87800188:	68da      	ldr	r2, [r3, #12]
8780018a:	f422 7280 	bic.w	r2, r2, #256	; 0x100
8780018e:	60da      	str	r2, [r3, #12]
87800190:	68da      	ldr	r2, [r3, #12]
87800192:	f042 0204 	orr.w	r2, r2, #4
87800196:	60da      	str	r2, [r3, #12]
87800198:	f44f 4200 	mov.w	r2, #32768	; 0x8000
8780019c:	f44f 4380 	mov.w	r3, #16384	; 0x4000
878001a0:	f2c0 230c 	movt	r3, #524	; 0x20c
878001a4:	f2c0 220c 	movt	r2, #524	; 0x20c
878001a8:	f242 0058 	movw	r0, #8280	; 0x2058
878001ac:	2101      	movs	r1, #1
878001ae:	6010      	str	r0, [r2, #0]
878001b0:	f241 041b 	movw	r4, #4123	; 0x101b
878001b4:	6119      	str	r1, [r3, #16]
878001b6:	f2c2 0418 	movt	r4, #8216	; 0x2018
878001ba:	68dd      	ldr	r5, [r3, #12]
878001bc:	f241 000c 	movw	r0, #4108	; 0x100c
878001c0:	f2c1 3011 	movt	r0, #4881	; 0x1311
878001c4:	4619      	mov	r1, r3
878001c6:	f025 0504 	bic.w	r5, r5, #4
878001ca:	60dd      	str	r5, [r3, #12]
878001cc:	f8d2 5100 	ldr.w	r5, [r2, #256]	; 0x100
878001d0:	f005 35c0 	and.w	r5, r5, #3233857728	; 0xc0c0c0c0
878001d4:	432c      	orrs	r4, r5
878001d6:	f8c2 4100 	str.w	r4, [r2, #256]	; 0x100
878001da:	f8d2 40f0 	ldr.w	r4, [r2, #240]	; 0xf0
878001de:	f004 34c0 	and.w	r4, r4, #3233857728	; 0xc0c0c0c0
878001e2:	4320      	orrs	r0, r4
878001e4:	f8c2 00f0 	str.w	r0, [r2, #240]	; 0xf0
878001e8:	699a      	ldr	r2, [r3, #24]
878001ea:	f422 2240 	bic.w	r2, r2, #786432	; 0xc0000
878001ee:	619a      	str	r2, [r3, #24]
878001f0:	699a      	ldr	r2, [r3, #24]
878001f2:	f442 2280 	orr.w	r2, r2, #262144	; 0x40000
878001f6:	619a      	str	r2, [r3, #24]
878001f8:	695a      	ldr	r2, [r3, #20]
878001fa:	f022 7200 	bic.w	r2, r2, #33554432	; 0x2000000
878001fe:	615a      	str	r2, [r3, #20]
87800200:	6c8a      	ldr	r2, [r1, #72]	; 0x48
87800202:	f44f 4380 	mov.w	r3, #16384	; 0x4000
87800206:	f2c0 230c 	movt	r3, #524	; 0x20c
8780020a:	0692      	lsls	r2, r2, #26
8780020c:	d4f8      	bmi.n	87800200 <bsp_imx6u_clk_init+0x88>
8780020e:	695a      	ldr	r2, [r3, #20]
87800210:	bc30      	pop	{r4, r5}
87800212:	f422 7240 	bic.w	r2, r2, #768	; 0x300
87800216:	615a      	str	r2, [r3, #20]
87800218:	695a      	ldr	r2, [r3, #20]
8780021a:	f442 7280 	orr.w	r2, r2, #256	; 0x100
8780021e:	615a      	str	r2, [r3, #20]
87800220:	69da      	ldr	r2, [r3, #28]
87800222:	f022 0240 	bic.w	r2, r2, #64	; 0x40
87800226:	61da      	str	r2, [r3, #28]
87800228:	69da      	ldr	r2, [r3, #28]
8780022a:	f022 0207 	bic.w	r2, r2, #7
8780022e:	61da      	str	r2, [r3, #28]
87800230:	4770      	bx	lr
87800232:	bf00      	nop

87800234 <bsp_delay>:
87800234:	3801      	subs	r0, #1
87800236:	f64f 71ff 	movw	r1, #65535	; 0xffff
8780023a:	b280      	uxth	r0, r0
8780023c:	4288      	cmp	r0, r1
8780023e:	d009      	beq.n	87800254 <bsp_delay+0x20>
87800240:	f240 73ff 	movw	r3, #2047	; 0x7ff
87800244:	461a      	mov	r2, r3
87800246:	3b01      	subs	r3, #1
87800248:	2a00      	cmp	r2, #0
8780024a:	d1fb      	bne.n	87800244 <bsp_delay+0x10>
8780024c:	3801      	subs	r0, #1
8780024e:	b280      	uxth	r0, r0
87800250:	4288      	cmp	r0, r1
87800252:	d1f5      	bne.n	87800240 <bsp_delay+0xc>
87800254:	4770      	bx	lr
87800256:	bf00      	nop

87800258 <bsp_delay_nus>:
87800258:	f44f 4100 	mov.w	r1, #32768	; 0x8000
8780025c:	b4f0      	push	{r4, r5, r6, r7}
8780025e:	f2c0 2109 	movt	r1, #521	; 0x209
87800262:	4606      	mov	r6, r0
87800264:	2700      	movs	r7, #0
87800266:	2400      	movs	r4, #0
87800268:	6a4a      	ldr	r2, [r1, #36]	; 0x24
8780026a:	2500      	movs	r5, #0
8780026c:	6a4b      	ldr	r3, [r1, #36]	; 0x24
8780026e:	4293      	cmp	r3, r2
87800270:	d0fc      	beq.n	8780026c <bsp_delay_nus+0x14>
87800272:	ea6f 0002 	mvn.w	r0, r2
87800276:	eba3 0202 	sub.w	r2, r3, r2
8780027a:	4418      	add	r0, r3
8780027c:	d909      	bls.n	87800292 <bsp_delay_nus+0x3a>
8780027e:	18a4      	adds	r4, r4, r2
87800280:	f145 0500 	adc.w	r5, r5, #0
87800284:	42bd      	cmp	r5, r7
87800286:	461a      	mov	r2, r3
87800288:	bf08      	it	eq
8780028a:	42b4      	cmpeq	r4, r6
8780028c:	d3ee      	bcc.n	8780026c <bsp_delay_nus+0x14>
8780028e:	bcf0      	pop	{r4, r5, r6, r7}
87800290:	4770      	bx	lr
87800292:	1824      	adds	r4, r4, r0
87800294:	f145 0500 	adc.w	r5, r5, #0
87800298:	e7f4      	b.n	87800284 <bsp_delay_nus+0x2c>
8780029a:	bf00      	nop

8780029c <bsp_delay_nms>:
8780029c:	b340      	cbz	r0, 878002f0 <bsp_delay_nms+0x54>
8780029e:	f44f 4100 	mov.w	r1, #32768	; 0x8000
878002a2:	b5f0      	push	{r4, r5, r6, r7, lr}
878002a4:	f04f 0c00 	mov.w	ip, #0
878002a8:	f2c0 2109 	movt	r1, #521	; 0x209
878002ac:	f240 36e7 	movw	r6, #999	; 0x3e7
878002b0:	2700      	movs	r7, #0
878002b2:	6a4a      	ldr	r2, [r1, #36]	; 0x24
878002b4:	2400      	movs	r4, #0
878002b6:	2500      	movs	r5, #0
878002b8:	6a4b      	ldr	r3, [r1, #36]	; 0x24
878002ba:	4293      	cmp	r3, r2
878002bc:	d0fc      	beq.n	878002b8 <bsp_delay_nms+0x1c>
878002be:	429a      	cmp	r2, r3
878002c0:	ea6f 0e02 	mvn.w	lr, r2
878002c4:	449e      	add	lr, r3
878002c6:	eba3 0202 	sub.w	r2, r3, r2
878002ca:	d20c      	bcs.n	878002e6 <bsp_delay_nms+0x4a>
878002cc:	18a4      	adds	r4, r4, r2
878002ce:	f145 0500 	adc.w	r5, r5, #0
878002d2:	42af      	cmp	r7, r5
878002d4:	461a      	mov	r2, r3
878002d6:	bf08      	it	eq
878002d8:	42a6      	cmpeq	r6, r4
878002da:	d2ed      	bcs.n	878002b8 <bsp_delay_nms+0x1c>
878002dc:	f10c 0c01 	add.w	ip, ip, #1
878002e0:	4584      	cmp	ip, r0
878002e2:	d1e6      	bne.n	878002b2 <bsp_delay_nms+0x16>
878002e4:	bdf0      	pop	{r4, r5, r6, r7, pc}
878002e6:	eb14 040e 	adds.w	r4, r4, lr
878002ea:	f145 0500 	adc.w	r5, r5, #0
878002ee:	e7f0      	b.n	878002d2 <bsp_delay_nms+0x36>
878002f0:	4770      	bx	lr
878002f2:	bf00      	nop

878002f4 <bsp_delay_init>:
878002f4:	f44f 4300 	mov.w	r3, #32768	; 0x8000
878002f8:	2200      	movs	r2, #0
878002fa:	f2c0 2309 	movt	r3, #521	; 0x209
878002fe:	601a      	str	r2, [r3, #0]
87800300:	4619      	mov	r1, r3
87800302:	681a      	ldr	r2, [r3, #0]
87800304:	f442 4200 	orr.w	r2, r2, #32768	; 0x8000
87800308:	601a      	str	r2, [r3, #0]
8780030a:	680a      	ldr	r2, [r1, #0]
8780030c:	f44f 4300 	mov.w	r3, #32768	; 0x8000
87800310:	f2c0 2309 	movt	r3, #521	; 0x209
87800314:	0412      	lsls	r2, r2, #16
87800316:	d4f8      	bmi.n	8780030a <bsp_delay_init+0x16>
87800318:	f04f 32ff 	mov.w	r2, #4294967295	; 0xffffffff
8780031c:	2040      	movs	r0, #64	; 0x40
8780031e:	2141      	movs	r1, #65	; 0x41
87800320:	6018      	str	r0, [r3, #0]
87800322:	6059      	str	r1, [r3, #4]
87800324:	611a      	str	r2, [r3, #16]
87800326:	681a      	ldr	r2, [r3, #0]
87800328:	f042 0201 	orr.w	r2, r2, #1
8780032c:	601a      	str	r2, [r3, #0]
8780032e:	4770      	bx	lr

87800330 <bsp_led_init>:
87800330:	2168      	movs	r1, #104	; 0x68
87800332:	f44f 723d 	mov.w	r2, #756	; 0x2f4
87800336:	f44f 4340 	mov.w	r3, #49152	; 0xc000
8780033a:	b410      	push	{r4}
8780033c:	f2c0 2309 	movt	r3, #521	; 0x209
87800340:	2405      	movs	r4, #5
87800342:	f2c0 220e 	movt	r2, #526	; 0x20e
87800346:	f2c0 210e 	movt	r1, #526	; 0x20e
8780034a:	f241 00b0 	movw	r0, #4272	; 0x10b0
8780034e:	600c      	str	r4, [r1, #0]
87800350:	6010      	str	r0, [r2, #0]
87800352:	685a      	ldr	r2, [r3, #4]
87800354:	f85d 4b04 	ldr.w	r4, [sp], #4
87800358:	f042 0208 	orr.w	r2, r2, #8
8780035c:	605a      	str	r2, [r3, #4]
8780035e:	681a      	ldr	r2, [r3, #0]
87800360:	f042 0208 	orr.w	r2, r2, #8
87800364:	601a      	str	r2, [r3, #0]
87800366:	4770      	bx	lr

87800368 <bsp_led_switch>:
87800368:	b950      	cbnz	r0, 87800380 <bsp_led_switch+0x18>
8780036a:	2901      	cmp	r1, #1
8780036c:	d009      	beq.n	87800382 <bsp_led_switch+0x1a>
8780036e:	b939      	cbnz	r1, 87800380 <bsp_led_switch+0x18>
87800370:	f44f 4340 	mov.w	r3, #49152	; 0xc000
87800374:	f2c0 2309 	movt	r3, #521	; 0x209
87800378:	681a      	ldr	r2, [r3, #0]
8780037a:	f042 0208 	orr.w	r2, r2, #8
8780037e:	601a      	str	r2, [r3, #0]
87800380:	4770      	bx	lr
87800382:	f44f 4340 	mov.w	r3, #49152	; 0xc000
87800386:	f2c0 2309 	movt	r3, #521	; 0x209
8780038a:	681a      	ldr	r2, [r3, #0]
8780038c:	f022 0208 	bic.w	r2, r2, #8
87800390:	601a      	str	r2, [r3, #0]
87800392:	4770      	bx	lr

87800394 <bsp_beep_init>:
87800394:	210c      	movs	r1, #12
87800396:	2250      	movs	r2, #80	; 0x50
87800398:	f44f 4340 	mov.w	r3, #49152	; 0xc000
8780039c:	b410      	push	{r4}
8780039e:	f2c0 230a 	movt	r3, #522	; 0x20a
878003a2:	2405      	movs	r4, #5
878003a4:	f2c0 2229 	movt	r2, #553	; 0x229
878003a8:	f2c0 2129 	movt	r1, #553	; 0x229
878003ac:	f241 00b0 	movw	r0, #4272	; 0x10b0
878003b0:	600c      	str	r4, [r1, #0]
878003b2:	6010      	str	r0, [r2, #0]
878003b4:	685a      	ldr	r2, [r3, #4]
878003b6:	f85d 4b04 	ldr.w	r4, [sp], #4
878003ba:	f042 0202 	orr.w	r2, r2, #2
878003be:	605a      	str	r2, [r3, #4]
878003c0:	681a      	ldr	r2, [r3, #0]
878003c2:	f042 0202 	orr.w	r2, r2, #2
878003c6:	601a      	str	r2, [r3, #0]
878003c8:	4770      	bx	lr
878003ca:	bf00      	nop

878003cc <bsp_beep_switch>:
878003cc:	f44f 4340 	mov.w	r3, #49152	; 0xc000
878003d0:	f2c0 230a 	movt	r3, #522	; 0x20a
878003d4:	681a      	ldr	r2, [r3, #0]
878003d6:	b918      	cbnz	r0, 878003e0 <bsp_beep_switch+0x14>
878003d8:	f042 0202 	orr.w	r2, r2, #2
878003dc:	601a      	str	r2, [r3, #0]
878003de:	4770      	bx	lr
878003e0:	f022 0202 	bic.w	r2, r2, #2
878003e4:	601a      	str	r2, [r3, #0]
878003e6:	4770      	bx	lr

878003e8 <bsp_gpio_pin_read>:
878003e8:	6800      	ldr	r0, [r0, #0]
878003ea:	40c8      	lsrs	r0, r1
878003ec:	f000 0001 	and.w	r0, r0, #1
878003f0:	4770      	bx	lr
878003f2:	bf00      	nop

878003f4 <bsp_gpio_pin_write>:
878003f4:	2301      	movs	r3, #1
878003f6:	b92a      	cbnz	r2, 87800404 <bsp_gpio_pin_write+0x10>
878003f8:	6802      	ldr	r2, [r0, #0]
878003fa:	408b      	lsls	r3, r1
878003fc:	ea22 0303 	bic.w	r3, r2, r3
87800400:	6003      	str	r3, [r0, #0]
87800402:	4770      	bx	lr
87800404:	6802      	ldr	r2, [r0, #0]
87800406:	408b      	lsls	r3, r1
87800408:	4313      	orrs	r3, r2
8780040a:	6003      	str	r3, [r0, #0]
8780040c:	4770      	bx	lr
8780040e:	bf00      	nop

87800410 <bsp_gpio_int_config>:
87800410:	b430      	push	{r4, r5}
87800412:	2301      	movs	r3, #1
87800414:	69c4      	ldr	r4, [r0, #28]
87800416:	408b      	lsls	r3, r1
87800418:	290f      	cmp	r1, #15
8780041a:	f102 32ff 	add.w	r2, r2, #4294967295	; 0xffffffff
8780041e:	bf88      	it	hi
87800420:	3910      	subhi	r1, #16
87800422:	ea24 0403 	bic.w	r4, r4, r3
87800426:	61c4      	str	r4, [r0, #28]
87800428:	bf94      	ite	ls
8780042a:	f100 040c 	addls.w	r4, r0, #12
8780042e:	f100 0410 	addhi.w	r4, r0, #16
87800432:	2a04      	cmp	r2, #4
87800434:	d80f      	bhi.n	87800456 <bsp_gpio_int_config+0x46>
87800436:	e8df f002 	tbb	[pc, r2]
8780043a:	231e1503 	tstcs	lr, #12582912	; 0xc00000
8780043e:	68200010 	stmdavs	r0!, {r4}
87800442:	0049      	lsls	r1, r1, #1
87800444:	2503      	movs	r5, #3
87800446:	2301      	movs	r3, #1
87800448:	408d      	lsls	r5, r1
8780044a:	fa03 f201 	lsl.w	r2, r3, r1
8780044e:	ea20 0305 	bic.w	r3, r0, r5
87800452:	4313      	orrs	r3, r2
87800454:	6023      	str	r3, [r4, #0]
87800456:	bc30      	pop	{r4, r5}
87800458:	4770      	bx	lr
8780045a:	69c2      	ldr	r2, [r0, #28]
8780045c:	bc30      	pop	{r4, r5}
8780045e:	4313      	orrs	r3, r2
87800460:	61c3      	str	r3, [r0, #28]
87800462:	4770      	bx	lr
87800464:	0049      	lsls	r1, r1, #1
87800466:	6822      	ldr	r2, [r4, #0]
87800468:	2303      	movs	r3, #3
8780046a:	408b      	lsls	r3, r1
8780046c:	ea22 0303 	bic.w	r3, r2, r3
87800470:	6023      	str	r3, [r4, #0]
87800472:	bc30      	pop	{r4, r5}
87800474:	4770      	bx	lr
87800476:	0049      	lsls	r1, r1, #1
87800478:	2503      	movs	r5, #3
8780047a:	6820      	ldr	r0, [r4, #0]
8780047c:	2302      	movs	r3, #2
8780047e:	e7e3      	b.n	87800448 <bsp_gpio_int_config+0x38>
87800480:	0049      	lsls	r1, r1, #1
87800482:	6822      	ldr	r2, [r4, #0]
87800484:	2303      	movs	r3, #3
87800486:	408b      	lsls	r3, r1
87800488:	4313      	orrs	r3, r2
8780048a:	6023      	str	r3, [r4, #0]
8780048c:	bc30      	pop	{r4, r5}
8780048e:	4770      	bx	lr

87800490 <bsp_gpio_init>:
87800490:	6813      	ldr	r3, [r2, #0]
87800492:	b410      	push	{r4}
87800494:	b1bb      	cbz	r3, 878004c6 <bsp_gpio_init+0x36>
87800496:	6844      	ldr	r4, [r0, #4]
87800498:	2301      	movs	r3, #1
8780049a:	408b      	lsls	r3, r1
8780049c:	431c      	orrs	r4, r3
8780049e:	6044      	str	r4, [r0, #4]
878004a0:	7914      	ldrb	r4, [r2, #4]
878004a2:	b13c      	cbz	r4, 878004b4 <bsp_gpio_init+0x24>
878004a4:	6804      	ldr	r4, [r0, #0]
878004a6:	6892      	ldr	r2, [r2, #8]
878004a8:	4323      	orrs	r3, r4
878004aa:	f85d 4b04 	ldr.w	r4, [sp], #4
878004ae:	6003      	str	r3, [r0, #0]
878004b0:	f7ff bfae 	b.w	87800410 <bsp_gpio_int_config>
878004b4:	6804      	ldr	r4, [r0, #0]
878004b6:	6892      	ldr	r2, [r2, #8]
878004b8:	ea24 0303 	bic.w	r3, r4, r3
878004bc:	f85d 4b04 	ldr.w	r4, [sp], #4
878004c0:	6003      	str	r3, [r0, #0]
878004c2:	f7ff bfa5 	b.w	87800410 <bsp_gpio_int_config>
878004c6:	6844      	ldr	r4, [r0, #4]
878004c8:	2301      	movs	r3, #1
878004ca:	408b      	lsls	r3, r1
878004cc:	6892      	ldr	r2, [r2, #8]
878004ce:	ea24 0303 	bic.w	r3, r4, r3
878004d2:	f85d 4b04 	ldr.w	r4, [sp], #4
878004d6:	6043      	str	r3, [r0, #4]
878004d8:	f7ff bf9a 	b.w	87800410 <bsp_gpio_int_config>

878004dc <bsp_gpio_enable_int>:
878004dc:	6943      	ldr	r3, [r0, #20]
878004de:	2201      	movs	r2, #1
878004e0:	408a      	lsls	r2, r1
878004e2:	4313      	orrs	r3, r2
878004e4:	6143      	str	r3, [r0, #20]
878004e6:	4770      	bx	lr

878004e8 <bsp_gpio_disable_int>:
878004e8:	6943      	ldr	r3, [r0, #20]
878004ea:	2201      	movs	r2, #1
878004ec:	408a      	lsls	r2, r1
878004ee:	ea23 0302 	bic.w	r3, r3, r2
878004f2:	6143      	str	r3, [r0, #20]
878004f4:	4770      	bx	lr
878004f6:	bf00      	nop

878004f8 <bsp_gpio_clear_intflag>:
878004f8:	6983      	ldr	r3, [r0, #24]
878004fa:	2201      	movs	r2, #1
878004fc:	408a      	lsls	r2, r1
878004fe:	4313      	orrs	r3, r2
87800500:	6183      	str	r3, [r0, #24]
87800502:	4770      	bx	lr

87800504 <bsp_key_init>:
87800504:	b570      	push	{r4, r5, r6, lr}
87800506:	218c      	movs	r1, #140	; 0x8c
87800508:	b084      	sub	sp, #16
8780050a:	f44f 7346 	mov.w	r3, #792	; 0x318
8780050e:	f2c0 230e 	movt	r3, #526	; 0x20e
87800512:	2400      	movs	r4, #0
87800514:	aa04      	add	r2, sp, #16
87800516:	f2c0 210e 	movt	r1, #526	; 0x20e
8780051a:	2605      	movs	r6, #5
8780051c:	f24f 0580 	movw	r5, #61568	; 0xf080
87800520:	f44f 4040 	mov.w	r0, #49152	; 0xc000
87800524:	600e      	str	r6, [r1, #0]
87800526:	f2c0 2009 	movt	r0, #521	; 0x209
8780052a:	601d      	str	r5, [r3, #0]
8780052c:	2112      	movs	r1, #18
8780052e:	f842 4d0c 	str.w	r4, [r2, #-12]!
87800532:	f7ff ffad 	bl	87800490 <bsp_gpio_init>
87800536:	4620      	mov	r0, r4
87800538:	b004      	add	sp, #16
8780053a:	bd70      	pop	{r4, r5, r6, pc}

8780053c <bsp_key_get_is_pushed>:
8780053c:	b108      	cbz	r0, 87800542 <bsp_key_get_is_pushed+0x6>
8780053e:	2003      	movs	r0, #3
87800540:	4770      	bx	lr
87800542:	f44f 4040 	mov.w	r0, #49152	; 0xc000
87800546:	b508      	push	{r3, lr}
87800548:	2112      	movs	r1, #18
8780054a:	f2c0 2009 	movt	r0, #521	; 0x209
8780054e:	f7ff ff4b 	bl	878003e8 <bsp_gpio_pin_read>
87800552:	fab0 f080 	clz	r0, r0
87800556:	0940      	lsrs	r0, r0, #5
87800558:	bd08      	pop	{r3, pc}
8780055a:	bf00      	nop

8780055c <_default_irqhandler>:
8780055c:	e7fe      	b.n	8780055c <_default_irqhandler>
8780055e:	bf00      	nop

87800560 <system_irqhandler>:
87800560:	f3c0 0209 	ubfx	r2, r0, #0, #10
87800564:	2a9f      	cmp	r2, #159	; 0x9f
87800566:	d900      	bls.n	8780056a <system_irqhandler+0xa>
87800568:	4770      	bx	lr
8780056a:	b538      	push	{r3, r4, r5, lr}
8780056c:	f640 1490 	movw	r4, #2448	; 0x990
87800570:	f2c8 7480 	movt	r4, #34688	; 0x8780
87800574:	4603      	mov	r3, r0
87800576:	eb04 03c3 	add.w	r3, r4, r3, lsl #3
8780057a:	4610      	mov	r0, r2
8780057c:	6821      	ldr	r1, [r4, #0]
8780057e:	eb04 02c2 	add.w	r2, r4, r2, lsl #3
87800582:	685d      	ldr	r5, [r3, #4]
87800584:	1c4b      	adds	r3, r1, #1
87800586:	6891      	ldr	r1, [r2, #8]
87800588:	6023      	str	r3, [r4, #0]
8780058a:	47a8      	blx	r5
8780058c:	6823      	ldr	r3, [r4, #0]
8780058e:	3b01      	subs	r3, #1
87800590:	6023      	str	r3, [r4, #0]
87800592:	bd38      	pop	{r3, r4, r5, pc}

87800594 <system_register_irqhandler>:
87800594:	f640 1390 	movw	r3, #2448	; 0x990
87800598:	f2c8 7380 	movt	r3, #34688	; 0x8780
8780059c:	eb03 00c0 	add.w	r0, r3, r0, lsl #3
878005a0:	6041      	str	r1, [r0, #4]
878005a2:	6082      	str	r2, [r0, #8]
878005a4:	4770      	bx	lr
878005a6:	bf00      	nop

878005a8 <bsp_int_init>:
878005a8:	b4f0      	push	{r4, r5, r6, r7}
878005aa:	ee9f 4f10 	mrc	15, 4, r4, cr15, cr0, {0}
878005ae:	0c24      	lsrs	r4, r4, #16
878005b0:	f241 0204 	movw	r2, #4100	; 0x1004
878005b4:	2300      	movs	r3, #0
878005b6:	0424      	lsls	r4, r4, #16
878005b8:	f04f 30ff 	mov.w	r0, #4294967295	; 0xffffffff
878005bc:	58a1      	ldr	r1, [r4, r2]
878005be:	f001 011f 	and.w	r1, r1, #31
878005c2:	3101      	adds	r1, #1
878005c4:	f503 628c 	add.w	r2, r3, #1120	; 0x460
878005c8:	3301      	adds	r3, #1
878005ca:	4299      	cmp	r1, r3
878005cc:	f844 0022 	str.w	r0, [r4, r2, lsl #2]
878005d0:	d1f8      	bne.n	878005c4 <bsp_int_init+0x1c>
878005d2:	4b12      	ldr	r3, [pc, #72]	; (8780061c <bsp_int_init+0x74>)
878005d4:	f242 0604 	movw	r6, #8196	; 0x2004
878005d8:	27f8      	movs	r7, #248	; 0xf8
878005da:	f240 525d 	movw	r2, #1373	; 0x55d
878005de:	51a7      	str	r7, [r4, r6]
878005e0:	f242 0508 	movw	r5, #8200	; 0x2008
878005e4:	2702      	movs	r7, #2
878005e6:	f2c8 7280 	movt	r2, #34688	; 0x8780
878005ea:	2000      	movs	r0, #0
878005ec:	f503 61a0 	add.w	r1, r3, #1280	; 0x500
878005f0:	5167      	str	r7, [r4, r5]
878005f2:	f504 5680 	add.w	r6, r4, #4096	; 0x1000
878005f6:	2501      	movs	r5, #1
878005f8:	f504 5400 	add.w	r4, r4, #8192	; 0x2000
878005fc:	6035      	str	r5, [r6, #0]
878005fe:	6025      	str	r5, [r4, #0]
87800600:	601a      	str	r2, [r3, #0]
87800602:	3308      	adds	r3, #8
87800604:	f843 0c04 	str.w	r0, [r3, #-4]
87800608:	428b      	cmp	r3, r1
8780060a:	d1f9      	bne.n	87800600 <bsp_int_init+0x58>
8780060c:	2300      	movs	r3, #0
8780060e:	f2c8 7380 	movt	r3, #34688	; 0x8780
87800612:	ee0c 3f10 	mcr	15, 0, r3, cr12, cr0, {0}
87800616:	bcf0      	pop	{r4, r5, r6, r7}
87800618:	4770      	bx	lr
8780061a:	bf00      	nop
8780061c:	87800994 			; <UNDEFINED> instruction: 0x87800994

87800620 <_gpio1_io18_irqhandler>:
87800620:	f44f 5091 	mov.w	r0, #4640	; 0x1220
87800624:	b508      	push	{r3, lr}
87800626:	f2c0 000a 	movt	r0, #10
8780062a:	f000 f873 	bl	87800714 <bsp_epit1_restart>
8780062e:	f44f 4040 	mov.w	r0, #49152	; 0xc000
87800632:	2112      	movs	r1, #18
87800634:	f2c0 2009 	movt	r0, #521	; 0x209
87800638:	e8bd 4008 	ldmia.w	sp!, {r3, lr}
8780063c:	f7ff bf5c 	b.w	878004f8 <bsp_gpio_clear_intflag>

87800640 <bsp_exit_int_init>:
87800640:	b570      	push	{r4, r5, r6, lr}
87800642:	218c      	movs	r1, #140	; 0x8c
87800644:	f44f 7246 	mov.w	r2, #792	; 0x318
87800648:	f44f 4540 	mov.w	r5, #49152	; 0xc000
8780064c:	b084      	sub	sp, #16
8780064e:	2305      	movs	r3, #5
87800650:	f2c0 210e 	movt	r1, #526	; 0x20e
87800654:	f2c0 220e 	movt	r2, #526	; 0x20e
87800658:	f24f 0480 	movw	r4, #61568	; 0xf080
8780065c:	f2c0 2509 	movt	r5, #521	; 0x209
87800660:	600b      	str	r3, [r1, #0]
87800662:	4628      	mov	r0, r5
87800664:	6014      	str	r4, [r2, #0]
87800666:	2112      	movs	r1, #18
87800668:	2400      	movs	r4, #0
8780066a:	aa01      	add	r2, sp, #4
8780066c:	9303      	str	r3, [sp, #12]
8780066e:	9401      	str	r4, [sp, #4]
87800670:	f7ff ff0e 	bl	87800490 <bsp_gpio_init>
87800674:	ee9f 3f10 	mrc	15, 4, r3, cr15, cr0, {0}
87800678:	0c1b      	lsrs	r3, r3, #16
8780067a:	f241 100c 	movw	r0, #4364	; 0x110c
8780067e:	2608      	movs	r6, #8
87800680:	041b      	lsls	r3, r3, #16
87800682:	f240 6121 	movw	r1, #1569	; 0x621
87800686:	4622      	mov	r2, r4
87800688:	501e      	str	r6, [r3, r0]
8780068a:	f2c8 7180 	movt	r1, #34688	; 0x8780
8780068e:	2063      	movs	r0, #99	; 0x63
87800690:	f7ff ff80 	bl	87800594 <system_register_irqhandler>
87800694:	4628      	mov	r0, r5
87800696:	2112      	movs	r1, #18
87800698:	f7ff ff20 	bl	878004dc <bsp_gpio_enable_int>
8780069c:	f44f 5191 	mov.w	r1, #4640	; 0x1220
878006a0:	4620      	mov	r0, r4
878006a2:	f2c0 010a 	movt	r1, #10
878006a6:	f000 f843 	bl	87800730 <bsp_epit1_init>
878006aa:	b004      	add	sp, #16
878006ac:	bd70      	pop	{r4, r5, r6, pc}
878006ae:	bf00      	nop

878006b0 <_epit1_irq_handler>:
878006b0:	b508      	push	{r3, lr}
878006b2:	2300      	movs	r3, #0
878006b4:	f2c0 230d 	movt	r3, #525	; 0x20d
878006b8:	685a      	ldr	r2, [r3, #4]
878006ba:	07d2      	lsls	r2, r2, #31
878006bc:	d407      	bmi.n	878006ce <_epit1_irq_handler+0x1e>
878006be:	2300      	movs	r3, #0
878006c0:	f2c0 230d 	movt	r3, #525	; 0x20d
878006c4:	685a      	ldr	r2, [r3, #4]
878006c6:	f042 0201 	orr.w	r2, r2, #1
878006ca:	605a      	str	r2, [r3, #4]
878006cc:	bd08      	pop	{r3, pc}
878006ce:	681a      	ldr	r2, [r3, #0]
878006d0:	f44f 4040 	mov.w	r0, #49152	; 0xc000
878006d4:	f2c0 2009 	movt	r0, #521	; 0x209
878006d8:	2112      	movs	r1, #18
878006da:	f022 0201 	bic.w	r2, r2, #1
878006de:	601a      	str	r2, [r3, #0]
878006e0:	f7ff fe82 	bl	878003e8 <bsp_gpio_pin_read>
878006e4:	2800      	cmp	r0, #0
878006e6:	d1ea      	bne.n	878006be <_epit1_irq_handler+0xe>
878006e8:	f640 6294 	movw	r2, #3732	; 0xe94
878006ec:	f2c8 7280 	movt	r2, #34688	; 0x8780
878006f0:	7813      	ldrb	r3, [r2, #0]
878006f2:	fab3 f383 	clz	r3, r3
878006f6:	095b      	lsrs	r3, r3, #5
878006f8:	4618      	mov	r0, r3
878006fa:	7013      	strb	r3, [r2, #0]
878006fc:	f7ff fe66 	bl	878003cc <bsp_beep_switch>
87800700:	e7dd      	b.n	878006be <_epit1_irq_handler+0xe>
87800702:	bf00      	nop

87800704 <bsp_epit1_stop>:
87800704:	2300      	movs	r3, #0
87800706:	f2c0 230d 	movt	r3, #525	; 0x20d
8780070a:	681a      	ldr	r2, [r3, #0]
8780070c:	f022 0201 	bic.w	r2, r2, #1
87800710:	601a      	str	r2, [r3, #0]
87800712:	4770      	bx	lr

87800714 <bsp_epit1_restart>:
87800714:	2300      	movs	r3, #0
87800716:	f2c0 230d 	movt	r3, #525	; 0x20d
8780071a:	681a      	ldr	r2, [r3, #0]
8780071c:	f022 0201 	bic.w	r2, r2, #1
87800720:	601a      	str	r2, [r3, #0]
87800722:	6098      	str	r0, [r3, #8]
87800724:	681a      	ldr	r2, [r3, #0]
87800726:	f042 0201 	orr.w	r2, r2, #1
8780072a:	601a      	str	r2, [r3, #0]
8780072c:	4770      	bx	lr
8780072e:	bf00      	nop

87800730 <bsp_epit1_init>:
87800730:	f640 73ff 	movw	r3, #4095	; 0xfff
87800734:	b410      	push	{r4}
87800736:	4298      	cmp	r0, r3
87800738:	f04f 0400 	mov.w	r4, #0
8780073c:	bf28      	it	cs
8780073e:	4618      	movcs	r0, r3
87800740:	f2c0 240d 	movt	r4, #525	; 0x20d
87800744:	0100      	lsls	r0, r0, #4
87800746:	2200      	movs	r2, #0
87800748:	6022      	str	r2, [r4, #0]
8780074a:	f040 7080 	orr.w	r0, r0, #16777216	; 0x1000000
8780074e:	f040 000e 	orr.w	r0, r0, #14
87800752:	6020      	str	r0, [r4, #0]
87800754:	60a1      	str	r1, [r4, #8]
87800756:	60e2      	str	r2, [r4, #12]
87800758:	ee9f 3f10 	mrc	15, 4, r3, cr15, cr0, {0}
8780075c:	0c1b      	lsrs	r3, r3, #16
8780075e:	f241 1008 	movw	r0, #4360	; 0x1108
87800762:	f04f 7480 	mov.w	r4, #16777216	; 0x1000000
87800766:	041b      	lsls	r3, r3, #16
87800768:	f240 61b1 	movw	r1, #1713	; 0x6b1
8780076c:	f2c8 7180 	movt	r1, #34688	; 0x8780
87800770:	501c      	str	r4, [r3, r0]
87800772:	2058      	movs	r0, #88	; 0x58
87800774:	f85d 4b04 	ldr.w	r4, [sp], #4
87800778:	f7ff bf0c 	b.w	87800594 <system_register_irqhandler>

8780077c <bsp_uart_enable>:
8780077c:	f8d0 3080 	ldr.w	r3, [r0, #128]	; 0x80
87800780:	f043 0301 	orr.w	r3, r3, #1
87800784:	f8c0 3080 	str.w	r3, [r0, #128]	; 0x80
87800788:	4770      	bx	lr
8780078a:	bf00      	nop

8780078c <bsp_uart_disable>:
8780078c:	f8d0 3080 	ldr.w	r3, [r0, #128]	; 0x80
87800790:	f023 0301 	bic.w	r3, r3, #1
87800794:	f8c0 3080 	str.w	r3, [r0, #128]	; 0x80
87800798:	4770      	bx	lr
8780079a:	bf00      	nop

8780079c <bsp_uart_softreset>:
8780079c:	f8d0 3084 	ldr.w	r3, [r0, #132]	; 0x84
878007a0:	f023 0301 	bic.w	r3, r3, #1
878007a4:	f8c0 3084 	str.w	r3, [r0, #132]	; 0x84
878007a8:	f8d0 3084 	ldr.w	r3, [r0, #132]	; 0x84
878007ac:	07db      	lsls	r3, r3, #31
878007ae:	d5fb      	bpl.n	878007a8 <bsp_uart_softreset+0xc>
878007b0:	4770      	bx	lr
878007b2:	bf00      	nop

878007b4 <bsp_uart_putc>:
878007b4:	2100      	movs	r1, #0
878007b6:	f2c0 2102 	movt	r1, #514	; 0x202
878007ba:	f8d1 2098 	ldr.w	r2, [r1, #152]	; 0x98
878007be:	2300      	movs	r3, #0
878007c0:	f2c0 2302 	movt	r3, #514	; 0x202
878007c4:	0712      	lsls	r2, r2, #28
878007c6:	d5f8      	bpl.n	878007ba <bsp_uart_putc+0x6>
878007c8:	6418      	str	r0, [r3, #64]	; 0x40
878007ca:	4770      	bx	lr

878007cc <bsp_uart_puts>:
878007cc:	7801      	ldrb	r1, [r0, #0]
878007ce:	b179      	cbz	r1, 878007f0 <bsp_uart_puts+0x24>
878007d0:	2200      	movs	r2, #0
878007d2:	b410      	push	{r4}
878007d4:	f2c0 2202 	movt	r2, #514	; 0x202
878007d8:	4614      	mov	r4, r2
878007da:	f8d2 3098 	ldr.w	r3, [r2, #152]	; 0x98
878007de:	071b      	lsls	r3, r3, #28
878007e0:	d5fb      	bpl.n	878007da <bsp_uart_puts+0xe>
878007e2:	6421      	str	r1, [r4, #64]	; 0x40
878007e4:	f810 1f01 	ldrb.w	r1, [r0, #1]!
878007e8:	2900      	cmp	r1, #0
878007ea:	d1f6      	bne.n	878007da <bsp_uart_puts+0xe>
878007ec:	f85d 4b04 	ldr.w	r4, [sp], #4
878007f0:	4770      	bx	lr
878007f2:	bf00      	nop

878007f4 <bsp_uart_getc>:
878007f4:	2100      	movs	r1, #0
878007f6:	f2c0 2102 	movt	r1, #514	; 0x202
878007fa:	f8d1 2098 	ldr.w	r2, [r1, #152]	; 0x98
878007fe:	2300      	movs	r3, #0
87800800:	f2c0 2302 	movt	r3, #514	; 0x202
87800804:	07d2      	lsls	r2, r2, #31
87800806:	d5f8      	bpl.n	878007fa <bsp_uart_getc+0x6>
87800808:	6818      	ldr	r0, [r3, #0]
8780080a:	b2c0      	uxtb	r0, r0
8780080c:	4770      	bx	lr
8780080e:	bf00      	nop

87800810 <bsp_uart_init>:
87800810:	2300      	movs	r3, #0
87800812:	2084      	movs	r0, #132	; 0x84
87800814:	b4f0      	push	{r4, r5, r6, r7}
87800816:	f2c0 200e 	movt	r0, #526	; 0x20e
8780081a:	461e      	mov	r6, r3
8780081c:	2188      	movs	r1, #136	; 0x88
8780081e:	f240 6524 	movw	r5, #1572	; 0x624
87800822:	f44f 7444 	mov.w	r4, #784	; 0x310
87800826:	f44f 7245 	mov.w	r2, #788	; 0x314
8780082a:	6006      	str	r6, [r0, #0]
8780082c:	f2c0 2302 	movt	r3, #514	; 0x202
87800830:	f2c0 210e 	movt	r1, #526	; 0x20e
87800834:	f2c0 220e 	movt	r2, #526	; 0x20e
87800838:	f241 00b0 	movw	r0, #4272	; 0x10b0
8780083c:	f2c0 250e 	movt	r5, #526	; 0x20e
87800840:	f2c0 240e 	movt	r4, #526	; 0x20e
87800844:	2703      	movs	r7, #3
87800846:	600e      	str	r6, [r1, #0]
87800848:	602f      	str	r7, [r5, #0]
8780084a:	4619      	mov	r1, r3
8780084c:	6020      	str	r0, [r4, #0]
8780084e:	6010      	str	r0, [r2, #0]
87800850:	f8d3 2080 	ldr.w	r2, [r3, #128]	; 0x80
87800854:	f022 0201 	bic.w	r2, r2, #1
87800858:	f8c3 2080 	str.w	r2, [r3, #128]	; 0x80
8780085c:	f8d3 2084 	ldr.w	r2, [r3, #132]	; 0x84
87800860:	f022 0201 	bic.w	r2, r2, #1
87800864:	f8c3 2084 	str.w	r2, [r3, #132]	; 0x84
87800868:	f8d1 2084 	ldr.w	r2, [r1, #132]	; 0x84
8780086c:	2300      	movs	r3, #0
8780086e:	f2c0 2302 	movt	r3, #514	; 0x202
87800872:	07d2      	lsls	r2, r2, #31
87800874:	d5f8      	bpl.n	87800868 <bsp_uart_init+0x58>
87800876:	2200      	movs	r2, #0
87800878:	f44f 7420 	mov.w	r4, #640	; 0x280
8780087c:	f8c3 2080 	str.w	r2, [r3, #128]	; 0x80
87800880:	2047      	movs	r0, #71	; 0x47
87800882:	f8d3 2080 	ldr.w	r2, [r3, #128]	; 0x80
87800886:	f640 4134 	movw	r1, #3124	; 0xc34
8780088a:	f422 4280 	bic.w	r2, r2, #16384	; 0x4000
8780088e:	f8c3 2080 	str.w	r2, [r3, #128]	; 0x80
87800892:	f8d3 2084 	ldr.w	r2, [r3, #132]	; 0x84
87800896:	f442 4280 	orr.w	r2, r2, #16384	; 0x4000
8780089a:	f042 0226 	orr.w	r2, r2, #38	; 0x26
8780089e:	f8c3 2084 	str.w	r2, [r3, #132]	; 0x84
878008a2:	f8d3 2088 	ldr.w	r2, [r3, #136]	; 0x88
878008a6:	f042 0204 	orr.w	r2, r2, #4
878008aa:	f8c3 2088 	str.w	r2, [r3, #136]	; 0x88
878008ae:	f8c3 4090 	str.w	r4, [r3, #144]	; 0x90
878008b2:	f8c3 00a4 	str.w	r0, [r3, #164]	; 0xa4
878008b6:	f8c3 10a8 	str.w	r1, [r3, #168]	; 0xa8
878008ba:	f8d3 2080 	ldr.w	r2, [r3, #128]	; 0x80
878008be:	bcf0      	pop	{r4, r5, r6, r7}
878008c0:	f042 0201 	orr.w	r2, r2, #1
878008c4:	f8c3 2080 	str.w	r2, [r3, #128]	; 0x80
878008c8:	4770      	bx	lr
878008ca:	bf00      	nop
878008cc:	0000      	movs	r0, r0
	...

878008d0 <__main_from_arm>:
878008d0:	e51ff004 	ldr	pc, [pc, #-4]	; 878008d4 <__main_from_arm+0x4>
878008d4:	878008d9 			; <UNDEFINED> instruction: 0x878008d9

Disassembly of section .text.startup:

878008d8 <main>:
878008d8:	b538      	push	{r3, r4, r5, lr}
878008da:	2400      	movs	r4, #0
878008dc:	f7ff fe64 	bl	878005a8 <bsp_int_init>
878008e0:	f7ff fc4a 	bl	87800178 <bsp_imx6u_clk_init>
878008e4:	f7ff fc38 	bl	87800158 <bsp_clk_enable>
878008e8:	f7ff fd04 	bl	878002f4 <bsp_delay_init>
878008ec:	f7ff fd20 	bl	87800330 <bsp_led_init>
878008f0:	f7ff fd50 	bl	87800394 <bsp_beep_init>
878008f4:	f7ff fea4 	bl	87800640 <bsp_exit_int_init>
878008f8:	f7ff ff8a 	bl	87800810 <bsp_uart_init>
878008fc:	f640 1058 	movw	r0, #2392	; 0x958
87800900:	f084 0401 	eor.w	r4, r4, #1
87800904:	f2c8 7080 	movt	r0, #34688	; 0x8780
87800908:	f7ff ff60 	bl	878007cc <bsp_uart_puts>
8780090c:	f7ff ff72 	bl	878007f4 <bsp_uart_getc>
87800910:	4605      	mov	r5, r0
87800912:	f7ff ff4f 	bl	878007b4 <bsp_uart_putc>
87800916:	f640 1070 	movw	r0, #2416	; 0x970
8780091a:	f2c8 7080 	movt	r0, #34688	; 0x8780
8780091e:	f7ff ff55 	bl	878007cc <bsp_uart_puts>
87800922:	f640 1074 	movw	r0, #2420	; 0x974
87800926:	f2c8 7080 	movt	r0, #34688	; 0x8780
8780092a:	f7ff ff4f 	bl	878007cc <bsp_uart_puts>
8780092e:	4628      	mov	r0, r5
87800930:	f7ff ff40 	bl	878007b4 <bsp_uart_putc>
87800934:	f640 1070 	movw	r0, #2416	; 0x970
87800938:	f2c8 7080 	movt	r0, #34688	; 0x8780
8780093c:	f7ff ff46 	bl	878007cc <bsp_uart_puts>
87800940:	f640 1084 	movw	r0, #2436	; 0x984
87800944:	f2c8 7080 	movt	r0, #34688	; 0x8780
87800948:	f7ff ff40 	bl	878007cc <bsp_uart_puts>
8780094c:	4621      	mov	r1, r4
8780094e:	2000      	movs	r0, #0
87800950:	f7ff fd0a 	bl	87800368 <bsp_led_switch>
87800954:	e7d2      	b.n	878008fc <main+0x24>
87800956:	bf00      	nop

Disassembly of section .rodata:

87800958 <__bss_start-0x38>:
87800958:	61656c50 	cmnvs	r5, r0, asr ip
8780095c:	69206573 	stmdbvs	r0!, {r0, r1, r4, r5, r6, r8, sl, sp, lr}
87800960:	7475706e 	ldrbtvc	r7, [r5], #-110	; 0x6e
87800964:	63206120 	teqvs	r0, #32, 2
87800968:	3a726168 	bcc	89498f10 <__bss_end+0x1c9807b>
8780096c:	00000000 	andeq	r0, r0, r0
87800970:	00000a0d 	andeq	r0, r0, sp, lsl #20
87800974:	72756f59 	rsbsvc	r6, r5, #356	; 0x164
87800978:	706e6920 	rsbvc	r6, lr, r0, lsr #18
8780097c:	69207475 	stmdbvs	r0!, {r0, r2, r4, r5, r6, sl, ip, sp, lr}
87800980:	00003a73 	andeq	r3, r0, r3, ror sl
87800984:	e5a882e6 	str	r8, [r8, #742]!	; 0x2e6
87800988:	0a0dbda5 	beq	87b70024 <__bss_end+0x36f18f>
8780098c:	00000000 	andeq	r0, r0, r0

Disassembly of section .bss:

87800990 <irq_nesting>:
87800990:	00000000 	andeq	r0, r0, r0

87800994 <irq_table>:
	...

87800e94 <psr.8199>:
	...

Disassembly of section .comment:

00000000 <.comment>:
   0:	3a434347 	bcc	10d0d24 <_start-0x8672f2dc>
   4:	694c2820 	stmdbvs	ip, {r5, fp, sp}^
   8:	6f72616e 	svcvs	0x0072616e
   c:	43434720 	movtmi	r4, #14112	; 0x3720
  10:	392e3420 	stmdbcc	lr!, {r5, sl, ip, sp}
  14:	3130322d 	teqcc	r0, sp, lsr #4
  18:	31302e37 	teqcc	r0, r7, lsr lr
  1c:	2e342029 	cdpcs	0, 3, cr2, cr4, cr9, {1}
  20:	00342e39 	eorseq	r2, r4, r9, lsr lr

Disassembly of section .ARM.attributes:

00000000 <.ARM.attributes>:
   0:	00003041 	andeq	r3, r0, r1, asr #32
   4:	61656100 	cmnvs	r5, r0, lsl #2
   8:	01006962 	tsteq	r0, r2, ror #18
   c:	00000026 	andeq	r0, r0, r6, lsr #32
  10:	412d3705 	teqmi	sp, r5, lsl #14
  14:	070a0600 	streq	r0, [sl, -r0, lsl #12]
  18:	09010841 	stmdbeq	r1, {r0, r6, fp}
  1c:	12040a02 	andne	r0, r4, #8192	; 0x2000
  20:	15011404 	strne	r1, [r1, #-1028]	; 0x404
  24:	18031701 	stmdane	r3, {r0, r8, r9, sl, ip}
  28:	1b021a01 	blne	86834 <_start-0x877797cc>
  2c:	22011c03 	andcs	r1, r1, #768	; 0x300
  30:	Address 0x0000000000000030 is out of bounds.

