
ledc.elf:     file format elf32-littlearm


Disassembly of section .text:

87800000 <_bss_start>:
87800000:	87800104 	strhi	r0, [r0, r4, lsl #2]

87800004 <_bss_end>:
87800004:	87800104 	strhi	r0, [r0, r4, lsl #2]

87800008 <_start>:
87800008:	e10f0000 	mrs	r0, CPSR
8780000c:	e3c0001f 	bic	r0, r0, #31
87800010:	e3800013 	orr	r0, r0, #19
87800014:	e129f000 	msr	CPSR_fc, r0
87800018:	e59f0018 	ldr	r0, [pc, #24]	; 87800038 <bss_loop+0x14>
8780001c:	e59f1018 	ldr	r1, [pc, #24]	; 8780003c <bss_loop+0x18>
87800020:	e3a02000 	mov	r2, #0

87800024 <bss_loop>:
87800024:	e8a00004 	stmia	r0!, {r2}
87800028:	e1500001 	cmp	r0, r1
8780002c:	dafffffc 	ble	87800024 <bss_loop>
87800030:	e59fd008 	ldr	sp, [pc, #8]	; 87800040 <bss_loop+0x1c>
87800034:	ea00000b 	b	87800068 <__main_from_arm>
87800038:	87800000 	strhi	r0, [r0, r0]
8780003c:	87800004 	strhi	r0, [r0, r4]
87800040:	80200000 	eorhi	r0, r0, r0
87800044:	00001e41 	andeq	r1, r0, r1, asr #28
87800048:	61656100 	cmnvs	r5, r0, lsl #2
8780004c:	01006962 	tsteq	r0, r2, ror #18
87800050:	00000014 	andeq	r0, r0, r4, lsl r0
87800054:	412d3705 	teqmi	sp, r5, lsl #14
87800058:	070a0600 	streq	r0, [sl, -r0, lsl #12]
8780005c:	09010841 	stmdbeq	r1, {r0, r6, fp}
87800060:	00040a02 	andeq	r0, r4, r2, lsl #20
87800064:	00000000 	andeq	r0, r0, r0

87800068 <__main_from_arm>:
87800068:	e51ff004 	ldr	pc, [pc, #-4]	; 8780006c <__main_from_arm+0x4>
8780006c:	87800071 			; <UNDEFINED> instruction: 0x87800071

Disassembly of section .text.startup:

87800070 <main>:
87800070:	f44f 4140 	mov.w	r1, #49152	; 0xc000
87800074:	f44f 4380 	mov.w	r3, #16384	; 0x4000
87800078:	f2c0 2109 	movt	r1, #521	; 0x209
8780007c:	f2c0 230c 	movt	r3, #524	; 0x20c
87800080:	f04f 32ff 	mov.w	r2, #4294967295	; 0xffffffff
87800084:	2514      	movs	r5, #20
87800086:	f44f 7401 	mov.w	r4, #516	; 0x204
8780008a:	4608      	mov	r0, r1
8780008c:	b580      	push	{r7, lr}
8780008e:	f2c0 250e 	movt	r5, #526	; 0x20e
87800092:	669a      	str	r2, [r3, #104]	; 0x68
87800094:	f04f 0e05 	mov.w	lr, #5
87800098:	f2c0 240e 	movt	r4, #526	; 0x20e
8780009c:	f241 07b0 	movw	r7, #4272	; 0x10b0
878000a0:	66da      	str	r2, [r3, #108]	; 0x6c
878000a2:	2608      	movs	r6, #8
878000a4:	671a      	str	r2, [r3, #112]	; 0x70
878000a6:	675a      	str	r2, [r3, #116]	; 0x74
878000a8:	679a      	str	r2, [r3, #120]	; 0x78
878000aa:	67da      	str	r2, [r3, #124]	; 0x7c
878000ac:	f8c3 2080 	str.w	r2, [r3, #128]	; 0x80
878000b0:	2300      	movs	r3, #0
878000b2:	f8c5 e054 	str.w	lr, [r5, #84]	; 0x54
878000b6:	f8c4 70f0 	str.w	r7, [r4, #240]	; 0xf0
878000ba:	604e      	str	r6, [r1, #4]
878000bc:	600b      	str	r3, [r1, #0]
878000be:	6803      	ldr	r3, [r0, #0]
878000c0:	21c8      	movs	r1, #200	; 0xc8
878000c2:	f023 0308 	bic.w	r3, r3, #8
878000c6:	6003      	str	r3, [r0, #0]
878000c8:	460b      	mov	r3, r1
878000ca:	3901      	subs	r1, #1
878000cc:	b14b      	cbz	r3, 878000e2 <main+0x72>
878000ce:	f240 73ff 	movw	r3, #2047	; 0x7ff
878000d2:	461a      	mov	r2, r3
878000d4:	3b01      	subs	r3, #1
878000d6:	2a00      	cmp	r2, #0
878000d8:	d1fb      	bne.n	878000d2 <main+0x62>
878000da:	460b      	mov	r3, r1
878000dc:	3901      	subs	r1, #1
878000de:	2b00      	cmp	r3, #0
878000e0:	d1f5      	bne.n	878000ce <main+0x5e>
878000e2:	6803      	ldr	r3, [r0, #0]
878000e4:	21c8      	movs	r1, #200	; 0xc8
878000e6:	f043 0308 	orr.w	r3, r3, #8
878000ea:	6003      	str	r3, [r0, #0]
878000ec:	460b      	mov	r3, r1
878000ee:	3901      	subs	r1, #1
878000f0:	2b00      	cmp	r3, #0
878000f2:	d0e4      	beq.n	878000be <main+0x4e>
878000f4:	f240 73ff 	movw	r3, #2047	; 0x7ff
878000f8:	461a      	mov	r2, r3
878000fa:	3b01      	subs	r3, #1
878000fc:	2a00      	cmp	r2, #0
878000fe:	d1fb      	bne.n	878000f8 <main+0x88>
87800100:	e7f4      	b.n	878000ec <main+0x7c>
87800102:	bf00      	nop

Disassembly of section .comment:

00000000 <.comment>:
   0:	3a434347 	bcc	10d0d24 <_bss_start-0x8672f2dc>
   4:	694c2820 	stmdbvs	ip, {r5, fp, sp}^
   8:	6f72616e 	svcvs	0x0072616e
   c:	43434720 	movtmi	r4, #14112	; 0x3720
  10:	392e3420 	stmdbcc	lr!, {r5, sl, ip, sp}
  14:	3130322d 	teqcc	r0, sp, lsr #4
  18:	31302e37 	teqcc	r0, r7, lsr lr
  1c:	2e342029 	cdpcs	0, 3, cr2, cr4, cr9, {1}
  20:	00342e39 	eorseq	r2, r4, r9, lsr lr

Disassembly of section .ARM.attributes:

00000000 <.ARM.attributes>:
   0:	00003041 	andeq	r3, r0, r1, asr #32
   4:	61656100 	cmnvs	r5, r0, lsl #2
   8:	01006962 	tsteq	r0, r2, ror #18
   c:	00000026 	andeq	r0, r0, r6, lsr #32
  10:	412d3705 	teqmi	sp, r5, lsl #14
  14:	070a0600 	streq	r0, [sl, -r0, lsl #12]
  18:	09010841 	stmdbeq	r1, {r0, r6, fp}
  1c:	12040a02 	andne	r0, r4, #8192	; 0x2000
  20:	15011404 	strne	r1, [r1, #-1028]	; 0x404
  24:	18031701 	stmdane	r3, {r0, r8, r9, sl, ip}
  28:	1b021a01 	blne	86834 <_bss_start-0x877797cc>
  2c:	22011c03 	andcs	r1, r1, #768	; 0x300
  30:	Address 0x0000000000000030 is out of bounds.

